target datalayout = "e-m:e-p270:32:32-p271:32:32-p272:64:64-i64:64-i128:128-f80:128-n8:16:32:64-S128"
target triple = "x86_64-unknown-linux-gnu"

%"class.QuantLib::Period" = type { i32, i32 }

; Function Attrs: mustprogress uwtable
define i64 @_ZN8QuantLibdvERKNS_6PeriodEi(ptr noundef nonnull align 4 dereferenceable(8) %p, i32 noundef %n) #0 {
entry:
  %retval = alloca %"class.QuantLib::Period", align 4
  %p.addr = alloca ptr, align 8
  %n.addr = alloca i32, align 4
  store ptr %p, ptr %p.addr, align 8, !tbaa !3
  store i32 %n, ptr %n.addr, align 4, !tbaa !18
  %0 = load ptr, ptr %p.addr, align 8, !tbaa !3
  call void @llvm.memcpy.p0.p0.i64(ptr align 4 %retval, ptr align 4 %0, i64 8, i1 false), !tbaa.struct !23
  %1 = load i32, ptr %n.addr, align 4, !tbaa !18
  %call = call noundef nonnull align 4 dereferenceable(8) ptr @_ZN8QuantLib6PerioddVEi(ptr noundef nonnull align 4 dereferenceable(8) %retval, i32 noundef %1)
  %2 = load i64, ptr %retval, align 4
  ret i64 %2
}