; Function Attrs: mustprogress uwtable
define i64 @_ZN8QuantLibdvERKNS_6PeriodEi(ptr nocapture noundef nonnull readonly align 4 dereferenceable(8) %p, i32 noundef %n) local_unnamed_addr #0 {
entry:
  %retval = alloca %"class.QuantLib::Period", align 8
  %0 = load i64, ptr %p, align 4
  store i64 %0, ptr %retval, align 8
  %call = call noundef nonnull align 4 dereferenceable(8) ptr @_ZN8QuantLib6PerioddVEi(ptr noundef nonnull align 4 dereferenceable(8) %retval, i32 noundef %n)
  %1 = load i64, ptr %retval, align 8
  ret i64 %1
}